; ModuleID = '58/1271.c'
source_filename = "58/1271.c"
target datalayout = "e-m:e-p270:32:32-p271:32:32-p272:64:64-i64:64-f80:128-n8:16:32:64-S128"
target triple = "x86_64-pc-linux-gnu"

@.str = private unnamed_addr constant [3 x i8] c"%d\00", align 1
@.str.1 = private unnamed_addr constant [3 x i8] c"1\0A\00", align 1
@.str.2 = private unnamed_addr constant [3 x i8] c"0\0A\00", align 1

; Function Attrs: noinline nounwind uwtable
define dso_local i32 @main() #0 {
  %1 = alloca i32, align 4
  %2 = alloca [81 x i8], align 16
  %3 = alloca i8*, align 8
  %4 = alloca i32, align 4
  %5 = alloca i32, align 4
  %6 = alloca i32, align 4
  %7 = alloca i32, align 4
  store i32 0, i32* %1, align 4
  %8 = call i32 (i8*, ...) @__isoc99_scanf(i8* getelementptr inbounds ([3 x i8], [3 x i8]* @.str, i64 0, i64 0), i32* %4)
  %9 = call i32 @getchar()
  store i32 1, i32* %5, align 4
  br label %10

10:                                               ; preds = %108, %0
  %11 = load i32, i32* %5, align 4
  %12 = load i32, i32* %4, align 4
  %13 = icmp sle i32 %11, %12
  br i1 %13, label %14, label %111

14:                                               ; preds = %10
  %15 = getelementptr inbounds [81 x i8], [81 x i8]* %2, i64 0, i64 0
  %16 = call i32 (i8*, ...) bitcast (i32 (...)* @gets to i32 (i8*, ...)*)(i8* %15)
  %17 = getelementptr inbounds [81 x i8], [81 x i8]* %2, i64 0, i64 0
  %18 = call i64 @strlen(i8* %17) #3
  %19 = trunc i64 %18 to i32
  store i32 %19, i32* %6, align 4
  %20 = getelementptr inbounds [81 x i8], [81 x i8]* %2, i64 0, i64 0
  store i8* %20, i8** %3, align 8
  store i32 0, i32* %7, align 4
  %21 = load i8*, i8** %3, align 8
  %22 = load i8, i8* %21, align 1
  %23 = sext i8 %22 to i32
  %24 = icmp eq i32 %23, 95
  br i1 %24, label %45, label %25

25:                                               ; preds = %14
  %26 = load i8*, i8** %3, align 8
  %27 = load i8, i8* %26, align 1
  %28 = sext i8 %27 to i32
  %29 = icmp sge i32 %28, 65
  br i1 %29, label %30, label %35

30:                                               ; preds = %25
  %31 = load i8*, i8** %3, align 8
  %32 = load i8, i8* %31, align 1
  %33 = sext i8 %32 to i32
  %34 = icmp sle i32 %33, 90
  br i1 %34, label %45, label %35

35:                                               ; preds = %30, %25
  %36 = load i8*, i8** %3, align 8
  %37 = load i8, i8* %36, align 1
  %38 = sext i8 %37 to i32
  %39 = icmp sge i32 %38, 97
  br i1 %39, label %40, label %105

40:                                               ; preds = %35
  %41 = load i8*, i8** %3, align 8
  %42 = load i8, i8* %41, align 1
  %43 = sext i8 %42 to i32
  %44 = icmp sle i32 %43, 122
  br i1 %44, label %45, label %105

45:                                               ; preds = %40, %30, %14
  %46 = getelementptr inbounds [81 x i8], [81 x i8]* %2, i64 0, i64 0
  store i8* %46, i8** %3, align 8
  br label %47

47:                                               ; preds = %93, %45
  %48 = load i8*, i8** %3, align 8
  %49 = getelementptr inbounds [81 x i8], [81 x i8]* %2, i64 0, i64 0
  %50 = load i32, i32* %6, align 4
  %51 = sext i32 %50 to i64
  %52 = getelementptr inbounds i8, i8* %49, i64 %51
  %53 = icmp ult i8* %48, %52
  br i1 %53, label %54, label %96

54:                                               ; preds = %47
  %55 = load i8*, i8** %3, align 8
  %56 = load i8, i8* %55, align 1
  %57 = sext i8 %56 to i32
  %58 = icmp eq i32 %57, 95
  br i1 %58, label %89, label %59

59:                                               ; preds = %54
  %60 = load i8*, i8** %3, align 8
  %61 = load i8, i8* %60, align 1
  %62 = sext i8 %61 to i32
  %63 = icmp sge i32 %62, 65
  br i1 %63, label %64, label %69

64:                                               ; preds = %59
  %65 = load i8*, i8** %3, align 8
  %66 = load i8, i8* %65, align 1
  %67 = sext i8 %66 to i32
  %68 = icmp sle i32 %67, 90
  br i1 %68, label %89, label %69

69:                                               ; preds = %64, %59
  %70 = load i8*, i8** %3, align 8
  %71 = load i8, i8* %70, align 1
  %72 = sext i8 %71 to i32
  %73 = icmp sge i32 %72, 97
  br i1 %73, label %74, label %79

74:                                               ; preds = %69
  %75 = load i8*, i8** %3, align 8
  %76 = load i8, i8* %75, align 1
  %77 = sext i8 %76 to i32
  %78 = icmp sle i32 %77, 122
  br i1 %78, label %89, label %79

79:                                               ; preds = %74, %69
  %80 = load i8*, i8** %3, align 8
  %81 = load i8, i8* %80, align 1
  %82 = sext i8 %81 to i32
  %83 = icmp sge i32 %82, 48
  br i1 %83, label %84, label %92

84:                                               ; preds = %79
  %85 = load i8*, i8** %3, align 8
  %86 = load i8, i8* %85, align 1
  %87 = sext i8 %86 to i32
  %88 = icmp sle i32 %87, 57
  br i1 %88, label %89, label %92

89:                                               ; preds = %84, %74, %64, %54
  %90 = load i32, i32* %7, align 4
  %91 = add nsw i32 %90, 1
  store i32 %91, i32* %7, align 4
  br label %92

92:                                               ; preds = %89, %84, %79
  br label %93

93:                                               ; preds = %92
  %94 = load i8*, i8** %3, align 8
  %95 = getelementptr inbounds i8, i8* %94, i32 1
  store i8* %95, i8** %3, align 8
  br label %47

96:                                               ; preds = %47
  %97 = load i32, i32* %7, align 4
  %98 = load i32, i32* %6, align 4
  %99 = icmp eq i32 %97, %98
  br i1 %99, label %100, label %102

100:                                              ; preds = %96
  %101 = call i32 (i8*, ...) @printf(i8* getelementptr inbounds ([3 x i8], [3 x i8]* @.str.1, i64 0, i64 0))
  br label %104

102:                                              ; preds = %96
  %103 = call i32 (i8*, ...) @printf(i8* getelementptr inbounds ([3 x i8], [3 x i8]* @.str.2, i64 0, i64 0))
  br label %104

104:                                              ; preds = %102, %100
  br label %107

105:                                              ; preds = %40, %35
  %106 = call i32 (i8*, ...) @printf(i8* getelementptr inbounds ([3 x i8], [3 x i8]* @.str.2, i64 0, i64 0))
  br label %107

107:                                              ; preds = %105, %104
  br label %108

108:                                              ; preds = %107
  %109 = load i32, i32* %5, align 4
  %110 = add nsw i32 %109, 1
  store i32 %110, i32* %5, align 4
  br label %10

111:                                              ; preds = %10
  ret i32 0
}

declare dso_local i32 @__isoc99_scanf(i8*, ...) #1

declare dso_local i32 @getchar() #1

declare dso_local i32 @gets(...) #1

; Function Attrs: nounwind readonly
declare dso_local i64 @strlen(i8*) #2

declare dso_local i32 @printf(i8*, ...) #1


!llvm.module.flags = !{!0}
!llvm.ident = !{!1}

!0 = !{i32 1, !"wchar_size", i32 4}
!1 = !{!"clang version 10.0.0-4ubuntu1 "}
